target datalayout = "e-m:e-p270:32:32-p271:32:32-p272:64:64-i64:64-i128:128-f80:128-n8:16:32:64-S128"
target triple = "x86_64-pc-linux-gnu"

%"struct.std::array" = type { [3 x i16] }

; Function Attrs: mustprogress nounwind uwtable
define i48 @_ZN4LIEF5MachO12DylibCommand11int2versionEj(i32 noundef %0) #0 align 2 {
  %2 = alloca %"struct.std::array", align 2
  %3 = alloca i32, align 4
  %4 = alloca i48, align 8
  store i32 %0, ptr %3, align 4
  %5 = getelementptr inbounds %"struct.std::array", ptr %2, i32 0, i32 0
  %6 = getelementptr inbounds [3 x i16], ptr %5, i64 0, i64 0
  %7 = load i32, ptr %3, align 4
  %8 = lshr i32 %7, 16
  %9 = trunc i32 %8 to i16
  store i16 %9, ptr %6, align 2
  %10 = getelementptr inbounds i16, ptr %6, i64 1
  %11 = load i32, ptr %3, align 4
  %12 = lshr i32 %11, 8
  %13 = and i32 %12, 255
  %14 = trunc i32 %13 to i16
  store i16 %14, ptr %10, align 2
  %15 = getelementptr inbounds i16, ptr %10, i64 1
  %16 = load i32, ptr %3, align 4
  %17 = and i32 %16, 255
  %18 = trunc i32 %17 to i16
  store i16 %18, ptr %15, align 2
  %19 = getelementptr inbounds %"struct.std::array", ptr %2, i32 0, i32 0
  call void @llvm.memcpy.p0.p0.i64(ptr align 8 %4, ptr align 2 %19, i64 6, i1 false)
  %20 = load i48, ptr %4, align 8
  ret i48 %20
}