; Function Attrs: mustprogress nofree norecurse nosync nounwind willreturn memory(none) uwtable
define i48 @_ZN4LIEF5MachO12DylibCommand11int2versionEj(i32 noundef %0) local_unnamed_addr #0 align 2 {
  %2 = lshr i32 %0, 16
  %3 = trunc i32 %0 to i16
  %4 = lshr i16 %3, 8
  %5 = and i16 %3, 255
  %.sroa.3.0.insert.ext = zext nneg i16 %5 to i48
  %.sroa.3.0.insert.shift = shl nuw nsw i48 %.sroa.3.0.insert.ext, 32
  %.sroa.2.0.insert.ext = zext nneg i16 %4 to i48
  %.sroa.2.0.insert.shift = shl nuw nsw i48 %.sroa.2.0.insert.ext, 16
  %.sroa.2.0.insert.insert = or disjoint i48 %.sroa.3.0.insert.shift, %.sroa.2.0.insert.shift
  %.sroa.0.0.insert.ext = zext nneg i32 %2 to i48
  %.sroa.0.0.insert.insert = or disjoint i48 %.sroa.2.0.insert.insert, %.sroa.0.0.insert.ext
  ret i48 %.sroa.0.0.insert.insert
}